target datalayout = "e-m:e-p270:32:32-p271:32:32-p272:64:64-i64:64-i128:128-f80:128-n8:16:32:64-S128"
target triple = "x86_64-pc-linux-gnu"

; Function Attrs: nounwind uwtable
define internal void @replace_cstring(ptr noundef %0, ptr noundef %1, ptr noundef %2) #0 {
  %4 = alloca ptr, align 8
  %5 = alloca ptr, align 8
  %6 = alloca ptr, align 8
  store ptr %0, ptr %4, align 8, !tbaa !77
  store ptr %1, ptr %5, align 8, !tbaa !20
  store ptr %2, ptr %6, align 8, !tbaa !20
  %7 = load ptr, ptr %4, align 8, !tbaa !77
  %8 = load ptr, ptr %7, align 8, !tbaa !20
  call void @free(ptr noundef %8) #8
  %9 = load ptr, ptr %5, align 8, !tbaa !20
  %10 = icmp ne ptr %9, null
  br i1 %10, label %11, label %23

11:                                               ; preds = %3
  %12 = load ptr, ptr %6, align 8, !tbaa !20
  %13 = icmp ne ptr %12, null
  br i1 %13, label %14, label %23

14:                                               ; preds = %11
  %15 = load ptr, ptr %5, align 8, !tbaa !20
  %16 = load ptr, ptr %6, align 8, !tbaa !20
  %17 = load ptr, ptr %5, align 8, !tbaa !20
  %18 = ptrtoint ptr %16 to i64
  %19 = ptrtoint ptr %17 to i64
  %20 = sub i64 %18, %19
  %21 = call ptr @xmemdupz(ptr noundef %15, i64 noundef %20)
  %22 = load ptr, ptr %4, align 8, !tbaa !77
  store ptr %21, ptr %22, align 8, !tbaa !20
  br label %25

23:                                               ; preds = %11, %3
  %24 = load ptr, ptr %4, align 8, !tbaa !77
  store ptr null, ptr %24, align 8, !tbaa !20
  br label %25

25:                                               ; preds = %23, %14
  ret void
}