; Function Attrs: nounwind uwtable
define internal fastcc void @replace_cstring(ptr noundef captures(none) %0, ptr noundef %1, ptr noundef %2) unnamed_addr #2 {
  %4 = load ptr, ptr %0, align 8, !tbaa !25
  tail call void @free(ptr noundef %4) #15
  %5 = icmp ne ptr %1, null
  %6 = icmp ne ptr %2, null
  %or.cond = and i1 %5, %6
  br i1 %or.cond, label %7, label %12

7:                                                ; preds = %3
  %8 = ptrtoint ptr %2 to i64
  %9 = ptrtoint ptr %1 to i64
  %10 = sub i64 %8, %9
  %11 = tail call ptr @xmemdupz(ptr noundef nonnull %1, i64 noundef %10) #15
  br label %12

12:                                               ; preds = %3, %7
  %storemerge = phi ptr [ %11, %7 ], [ null, %3 ]
  store ptr %storemerge, ptr %0, align 8, !tbaa !25
  ret void
}